target datalayout = "e-m:e-p270:32:32-p271:32:32-p272:64:64-i64:64-i128:128-f80:128-n8:16:32:64-S128"
target triple = "x86_64-pc-linux-gnu"

%struct.jpeg_decompress_struct = type { ptr, ptr, ptr, ptr, i32, i32, ptr, i32, i32, i32, i32, i32, i32, i32, double, i32, i32, i32, i32, i32, i32, i32, i32, i32, i32, i32, i32, i32, i32, i32, i32, i32, i32, ptr, i32, i32, i32, i32, i32, ptr, [4 x ptr], [4 x ptr], [4 x ptr], i32, ptr, i32, i32, i32, [16 x i8], [16 x i8], [16 x i8], i32, i32, i8, i8, i8, i16, i16, i32, i8, i32, ptr, i32, i32, i32, i32, i32, ptr, i32, [4 x ptr], i32, i32, i32, [10 x i32], i32, i32, i32, i32, i32, ptr, i32, i32, ptr, ptr, ptr, ptr, ptr, ptr, ptr, ptr, ptr, ptr, ptr }
%"struct.cv::JpegSource" = type { %struct.jpeg_source_mgr, i32 }
%struct.jpeg_source_mgr = type { ptr, i64, ptr, ptr, ptr, ptr, ptr }

; Function Attrs: mustprogress nounwind uwtable
define internal void @_ZN2cvL15skip_input_dataEP22jpeg_decompress_structl(ptr noundef %0, i64 noundef %1) #5 {
  %3 = alloca ptr, align 8
  %4 = alloca i64, align 8
  %5 = alloca ptr, align 8
  store ptr %0, ptr %3, align 8, !tbaa !122
  store i64 %1, ptr %4, align 8, !tbaa !138
  call void @llvm.lifetime.start.p0(i64 8, ptr %5) #3
  %6 = load ptr, ptr %3, align 8, !tbaa !122
  %7 = getelementptr inbounds nuw %struct.jpeg_decompress_struct, ptr %6, i32 0, i32 6
  %8 = load ptr, ptr %7, align 8, !tbaa !126
  store ptr %8, ptr %5, align 8, !tbaa !124
  %9 = load i64, ptr %4, align 8, !tbaa !138
  %10 = load ptr, ptr %5, align 8, !tbaa !124
  %11 = getelementptr inbounds nuw %"struct.cv::JpegSource", ptr %10, i32 0, i32 0
  %12 = getelementptr inbounds nuw %struct.jpeg_source_mgr, ptr %11, i32 0, i32 1
  %13 = load i64, ptr %12, align 8, !tbaa !132
  %14 = icmp sgt i64 %9, %13
  br i1 %14, label %15, label %37

15:                                               ; preds = %2
  %16 = load i64, ptr %4, align 8, !tbaa !138
  %17 = load ptr, ptr %5, align 8, !tbaa !124
  %18 = getelementptr inbounds nuw %"struct.cv::JpegSource", ptr %17, i32 0, i32 0
  %19 = getelementptr inbounds nuw %struct.jpeg_source_mgr, ptr %18, i32 0, i32 1
  %20 = load i64, ptr %19, align 8, !tbaa !132
  %21 = sub i64 %16, %20
  %22 = trunc i64 %21 to i32
  %23 = load ptr, ptr %5, align 8, !tbaa !124
  %24 = getelementptr inbounds nuw %"struct.cv::JpegSource", ptr %23, i32 0, i32 1
  store i32 %22, ptr %24, align 8, !tbaa !133
  %25 = load ptr, ptr %5, align 8, !tbaa !124
  %26 = getelementptr inbounds nuw %"struct.cv::JpegSource", ptr %25, i32 0, i32 0
  %27 = getelementptr inbounds nuw %struct.jpeg_source_mgr, ptr %26, i32 0, i32 1
  %28 = load i64, ptr %27, align 8, !tbaa !132
  %29 = load ptr, ptr %5, align 8, !tbaa !124
  %30 = getelementptr inbounds nuw %"struct.cv::JpegSource", ptr %29, i32 0, i32 0
  %31 = getelementptr inbounds nuw %struct.jpeg_source_mgr, ptr %30, i32 0, i32 0
  %32 = load ptr, ptr %31, align 8, !tbaa !285
  %33 = getelementptr inbounds nuw i8, ptr %32, i64 %28
  store ptr %33, ptr %31, align 8, !tbaa !285
  %34 = load ptr, ptr %5, align 8, !tbaa !124
  %35 = getelementptr inbounds nuw %"struct.cv::JpegSource", ptr %34, i32 0, i32 0
  %36 = getelementptr inbounds nuw %struct.jpeg_source_mgr, ptr %35, i32 0, i32 1
  store i64 0, ptr %36, align 8, !tbaa !132
  br label %52

37:                                               ; preds = %2
  %38 = load i64, ptr %4, align 8, !tbaa !138
  %39 = load ptr, ptr %5, align 8, !tbaa !124
  %40 = getelementptr inbounds nuw %"struct.cv::JpegSource", ptr %39, i32 0, i32 0
  %41 = getelementptr inbounds nuw %struct.jpeg_source_mgr, ptr %40, i32 0, i32 1
  %42 = load i64, ptr %41, align 8, !tbaa !132
  %43 = sub i64 %42, %38
  store i64 %43, ptr %41, align 8, !tbaa !132
  %44 = load i64, ptr %4, align 8, !tbaa !138
  %45 = load ptr, ptr %5, align 8, !tbaa !124
  %46 = getelementptr inbounds nuw %"struct.cv::JpegSource", ptr %45, i32 0, i32 0
  %47 = getelementptr inbounds nuw %struct.jpeg_source_mgr, ptr %46, i32 0, i32 0
  %48 = load ptr, ptr %47, align 8, !tbaa !285
  %49 = getelementptr inbounds i8, ptr %48, i64 %44
  store ptr %49, ptr %47, align 8, !tbaa !285
  %50 = load ptr, ptr %5, align 8, !tbaa !124
  %51 = getelementptr inbounds nuw %"struct.cv::JpegSource", ptr %50, i32 0, i32 1
  store i32 0, ptr %51, align 8, !tbaa !133
  br label %52

52:                                               ; preds = %37, %15
  call void @llvm.lifetime.end.p0(i64 8, ptr %5) #3
  ret void
}