; Function Attrs: mustprogress nofree norecurse nosync nounwind willreturn memory(readwrite, inaccessiblemem: none) uwtable
define internal void @_ZN2cvL15skip_input_dataEP22jpeg_decompress_structl(ptr noundef readonly captures(none) %0, i64 noundef %1) #17 {
  %3 = getelementptr inbounds nuw i8, ptr %0, i64 40
  %4 = load ptr, ptr %3, align 8, !tbaa !111
  %5 = getelementptr inbounds nuw i8, ptr %4, i64 8
  %6 = load i64, ptr %5, align 8, !tbaa !117
  %7 = icmp sgt i64 %1, %6
  %8 = sub i64 %6, %1
  %9 = sub i64 %1, %6
  %10 = trunc i64 %9 to i32
  %.sink18 = tail call i64 @llvm.smin.i64(i64 %1, i64 %6)
  %.sink16 = select i1 %7, i32 %10, i32 0
  %.sink = select i1 %7, i64 0, i64 %8
  %11 = load ptr, ptr %4, align 8, !tbaa !230
  %12 = getelementptr inbounds i8, ptr %11, i64 %.sink18
  %13 = getelementptr inbounds nuw i8, ptr %4, i64 56
  store i32 %.sink16, ptr %13, align 8, !tbaa !118
  store ptr %12, ptr %4, align 8, !tbaa !230
  store i64 %.sink, ptr %5, align 8, !tbaa !117
  ret void
}